; Function Attrs: mustprogress nounwind willreturn uwtable
define void @Sbd_StoComputeCutsObj(ptr noundef readonly captures(none) %0, i32 noundef %1, i32 noundef %2, i32 noundef %3) local_unnamed_addr #6 {
  %5 = getelementptr inbounds nuw i8, ptr %0, i64 40
  %6 = load ptr, ptr %5, align 8, !tbaa !82
  %7 = getelementptr i8, ptr %6, i64 4
  %.val = load i32, ptr %7, align 4, !tbaa !110
  %8 = icmp slt i32 %1, %.val
  br i1 %8, label %9, label %17

9:                                                ; preds = %4
  %10 = getelementptr i8, ptr %6, i64 8
  %.val12 = load ptr, ptr %10, align 8, !tbaa !34
  %11 = sext i32 %1 to i64
  %12 = getelementptr inbounds i32, ptr %.val12, i64 %11
  store i32 %2, ptr %12, align 4, !tbaa !35
  %13 = getelementptr inbounds nuw i8, ptr %0, i64 48
  %14 = load ptr, ptr %13, align 8, !tbaa !85
  %15 = getelementptr i8, ptr %14, i64 8
  %.val13 = load ptr, ptr %15, align 8, !tbaa !34
  %16 = getelementptr inbounds i32, ptr %.val13, i64 %11
  store i32 %3, ptr %16, align 4, !tbaa !35
  br label %120

17:                                               ; preds = %4
  %18 = load i32, ptr %6, align 8, !tbaa !111
  %19 = icmp eq i32 %.val, %18
  br i1 %19, label %20, label %.Vec_IntGrow.exit10_crit_edge.i

.Vec_IntGrow.exit10_crit_edge.i:                  ; preds = %17
  %.phi.trans.insert.i = getelementptr inbounds nuw i8, ptr %6, i64 8
  %.pre.i = load ptr, ptr %.phi.trans.insert.i, align 8, !tbaa !34
  br label %Vec_IntPush.exit

20:                                               ; preds = %17
  %21 = icmp slt i32 %.val, 16
  br i1 %21, label %22, label %30

22:                                               ; preds = %20
  %23 = getelementptr inbounds nuw i8, ptr %6, i64 8
  %24 = load ptr, ptr %23, align 8, !tbaa !34
  %.not9.i.i = icmp eq ptr %24, null
  br i1 %.not9.i.i, label %27, label %25

25:                                               ; preds = %22
  %26 = tail call dereferenceable_or_null(64) ptr @realloc(ptr noundef nonnull %24, i64 noundef 64) #24
  br label %Vec_IntGrow.exit.i

27:                                               ; preds = %22
  %28 = tail call noalias dereferenceable_or_null(64) ptr @malloc(i64 noundef 64) #25
  br label %Vec_IntGrow.exit.i

Vec_IntGrow.exit.i:                               ; preds = %27, %25
  %29 = phi ptr [ %26, %25 ], [ %28, %27 ]
  store ptr %29, ptr %23, align 8, !tbaa !34
  store i32 16, ptr %6, align 8, !tbaa !111
  br label %Vec_IntPush.exit

30:                                               ; preds = %20
  %31 = shl nuw nsw i32 %.val, 1
  %32 = getelementptr inbounds nuw i8, ptr %6, i64 8
  %33 = load ptr, ptr %32, align 8, !tbaa !34
  %.not9.i9.i = icmp eq ptr %33, null
  %34 = zext nneg i32 %31 to i64
  %35 = shl nuw nsw i64 %34, 2
  br i1 %.not9.i9.i, label %38, label %36

36:                                               ; preds = %30
  %37 = tail call ptr @realloc(ptr noundef nonnull %33, i64 noundef %35) #24
  br label %40

38:                                               ; preds = %30
  %39 = tail call noalias ptr @malloc(i64 noundef %35) #25
  br label %40

40:                                               ; preds = %38, %36
  %41 = phi ptr [ %37, %36 ], [ %39, %38 ]
  store ptr %41, ptr %32, align 8, !tbaa !34
  store i32 %31, ptr %6, align 8, !tbaa !111
  br label %Vec_IntPush.exit

Vec_IntPush.exit:                                 ; preds = %.Vec_IntGrow.exit10_crit_edge.i, %Vec_IntGrow.exit.i, %40
  %42 = phi ptr [ %.pre.i, %.Vec_IntGrow.exit10_crit_edge.i ], [ %41, %40 ], [ %29, %Vec_IntGrow.exit.i ]
  %43 = load i32, ptr %7, align 4, !tbaa !110
  %44 = add nsw i32 %43, 1
  store i32 %44, ptr %7, align 4, !tbaa !110
  %45 = sext i32 %43 to i64
  %46 = getelementptr inbounds i32, ptr %42, i64 %45
  store i32 %2, ptr %46, align 4, !tbaa !35
  %47 = getelementptr inbounds nuw i8, ptr %0, i64 48
  %48 = load ptr, ptr %47, align 8, !tbaa !85
  %49 = getelementptr inbounds nuw i8, ptr %48, i64 4
  %50 = load i32, ptr %49, align 4, !tbaa !110
  %51 = load i32, ptr %48, align 8, !tbaa !111
  %52 = icmp eq i32 %50, %51
  br i1 %52, label %53, label %.Vec_IntGrow.exit10_crit_edge.i14

.Vec_IntGrow.exit10_crit_edge.i14:                ; preds = %Vec_IntPush.exit
  %.phi.trans.insert.i15 = getelementptr inbounds nuw i8, ptr %48, i64 8
  %.pre.i16 = load ptr, ptr %.phi.trans.insert.i15, align 8, !tbaa !34
  br label %Vec_IntPush.exit20

53:                                               ; preds = %Vec_IntPush.exit
  %54 = icmp slt i32 %50, 16
  br i1 %54, label %55, label %63

55:                                               ; preds = %53
  %56 = getelementptr inbounds nuw i8, ptr %48, i64 8
  %57 = load ptr, ptr %56, align 8, !tbaa !34
  %.not9.i.i18 = icmp eq ptr %57, null
  br i1 %.not9.i.i18, label %60, label %58

58:                                               ; preds = %55
  %59 = tail call dereferenceable_or_null(64) ptr @realloc(ptr noundef nonnull %57, i64 noundef 64) #24
  br label %Vec_IntGrow.exit.i19

60:                                               ; preds = %55
  %61 = tail call noalias dereferenceable_or_null(64) ptr @malloc(i64 noundef 64) #25
  br label %Vec_IntGrow.exit.i19

Vec_IntGrow.exit.i19:                             ; preds = %60, %58
  %62 = phi ptr [ %59, %58 ], [ %61, %60 ]
  store ptr %62, ptr %56, align 8, !tbaa !34
  store i32 16, ptr %48, align 8, !tbaa !111
  br label %Vec_IntPush.exit20

63:                                               ; preds = %53
  %64 = shl nuw nsw i32 %50, 1
  %65 = getelementptr inbounds nuw i8, ptr %48, i64 8
  %66 = load ptr, ptr %65, align 8, !tbaa !34
  %.not9.i9.i17 = icmp eq ptr %66, null
  %67 = zext nneg i32 %64 to i64
  %68 = shl nuw nsw i64 %67, 2
  br i1 %.not9.i9.i17, label %71, label %69

69:                                               ; preds = %63
  %70 = tail call ptr @realloc(ptr noundef nonnull %66, i64 noundef %68) #24
  br label %73

71:                                               ; preds = %63
  %72 = tail call noalias ptr @malloc(i64 noundef %68) #25
  br label %73

73:                                               ; preds = %71, %69
  %74 = phi ptr [ %70, %69 ], [ %72, %71 ]
  store ptr %74, ptr %65, align 8, !tbaa !34
  store i32 %64, ptr %48, align 8, !tbaa !111
  br label %Vec_IntPush.exit20

Vec_IntPush.exit20:                               ; preds = %.Vec_IntGrow.exit10_crit_edge.i14, %Vec_IntGrow.exit.i19, %73
  %75 = phi ptr [ %.pre.i16, %.Vec_IntGrow.exit10_crit_edge.i14 ], [ %74, %73 ], [ %62, %Vec_IntGrow.exit.i19 ]
  %76 = load i32, ptr %49, align 4, !tbaa !110
  %77 = add nsw i32 %76, 1
  store i32 %77, ptr %49, align 4, !tbaa !110
  %78 = sext i32 %76 to i64
  %79 = getelementptr inbounds i32, ptr %75, i64 %78
  store i32 %3, ptr %79, align 4, !tbaa !35
  %80 = getelementptr inbounds nuw i8, ptr %0, i64 64
  %81 = load ptr, ptr %80, align 8, !tbaa !107
  %82 = getelementptr inbounds nuw i8, ptr %81, i64 4
  %83 = load i32, ptr %82, align 4, !tbaa !123
  %84 = load i32, ptr %81, align 8, !tbaa !122
  %85 = icmp eq i32 %83, %84
  br i1 %85, label %86, label %Vec_WecPushLevel.exit

86:                                               ; preds = %Vec_IntPush.exit20
  %87 = icmp slt i32 %83, 16
  br i1 %87, label %88, label %100

88:                                               ; preds = %86
  %89 = getelementptr inbounds nuw i8, ptr %81, i64 8
  %90 = load ptr, ptr %89, align 8, !tbaa !108
  %.not13.i.i = icmp eq ptr %90, null
  br i1 %.not13.i.i, label %93, label %91

91:                                               ; preds = %88
  %92 = tail call dereferenceable_or_null(256) ptr @realloc(ptr noundef nonnull %90, i64 noundef 256) #24
  %.pre.i.i = load i32, ptr %81, align 8, !tbaa !122
  br label %Vec_WecGrow.exit.i

93:                                               ; preds = %88
  %94 = tail call noalias dereferenceable_or_null(256) ptr @malloc(i64 noundef 256) #25
  br label %Vec_WecGrow.exit.i

Vec_WecGrow.exit.i:                               ; preds = %93, %91
  %95 = phi i32 [ %.pre.i.i, %91 ], [ %83, %93 ]
  %96 = phi ptr [ %92, %91 ], [ %94, %93 ]
  store ptr %96, ptr %89, align 8, !tbaa !108
  %97 = sext i32 %95 to i64
  %98 = getelementptr inbounds %struct.Vec_Int_t_, ptr %96, i64 %97
  %99 = sub nsw i32 16, %95
  br label %Vec_WecPushLevel.exit.sink.split

100:                                              ; preds = %86
  %101 = shl nuw nsw i32 %83, 1
  %102 = getelementptr inbounds nuw i8, ptr %81, i64 8
  %103 = load ptr, ptr %102, align 8, !tbaa !108
  %.not13.i10.i = icmp eq ptr %103, null
  %104 = zext nneg i32 %101 to i64
  %105 = shl nuw nsw i64 %104, 4
  br i1 %.not13.i10.i, label %108, label %106

106:                                              ; preds = %100
  %107 = tail call ptr @realloc(ptr noundef nonnull %103, i64 noundef %105) #24
  %.pre.i11.i = load i32, ptr %81, align 8, !tbaa !122
  br label %110

108:                                              ; preds = %100
  %109 = tail call noalias ptr @malloc(i64 noundef %105) #25
  br label %110

110:                                              ; preds = %108, %106
  %111 = phi i32 [ %.pre.i11.i, %106 ], [ %83, %108 ]
  %112 = phi ptr [ %107, %106 ], [ %109, %108 ]
  store ptr %112, ptr %102, align 8, !tbaa !108
  %113 = sext i32 %111 to i64
  %114 = getelementptr inbounds %struct.Vec_Int_t_, ptr %112, i64 %113
  %115 = sub nsw i32 %101, %111
  br label %Vec_WecPushLevel.exit.sink.split

Vec_WecPushLevel.exit.sink.split:                 ; preds = %110, %Vec_WecGrow.exit.i
  %.sink25 = phi i32 [ %99, %Vec_WecGrow.exit.i ], [ %115, %110 ]
  %.sink22 = phi ptr [ %98, %Vec_WecGrow.exit.i ], [ %114, %110 ]
  %.sink = phi i32 [ 16, %Vec_WecGrow.exit.i ], [ %101, %110 ]
  %116 = sext i32 %.sink25 to i64
  %117 = shl nsw i64 %116, 4
  tail call void @llvm.memset.p0.i64(ptr align 8 %.sink22, i8 0, i64 %117, i1 false)
  store i32 %.sink, ptr %81, align 8, !tbaa !122
  br label %Vec_WecPushLevel.exit

Vec_WecPushLevel.exit:                            ; preds = %Vec_WecPushLevel.exit.sink.split, %Vec_IntPush.exit20
  %118 = load i32, ptr %82, align 4, !tbaa !123
  %119 = add nsw i32 %118, 1
  store i32 %119, ptr %82, align 4, !tbaa !123
  br label %120

120:                                              ; preds = %Vec_WecPushLevel.exit, %9
  ret void
}